TN:
SF:/home/spinoza/github/beta/zeroipc/cpp/include/zeroipc/array.h
FN:110,115,_ZN7zeroipc5ArrayIdE2atEm
FN:110,115,_ZN7zeroipc5ArrayIiE2atEm
FN:127,127,_ZN7zeroipc5ArrayIdE4dataEv
FN:127,127,_ZN7zeroipc5ArrayIiE4dataEv
FN:133,133,_ZNK7zeroipc5ArrayIdE8capacityEv
FN:133,133,_ZNK7zeroipc5ArrayIfE8capacityEv
FN:133,133,_ZNK7zeroipc5ArrayIiE8capacityEv
FN:138,138,_ZNK7zeroipc5ArrayIiE4nameEv
FN:143,143,_ZN7zeroipc5ArrayIdE5beginEv
FN:143,143,_ZN7zeroipc5ArrayIiE5beginEv
FN:144,144,_ZN7zeroipc5ArrayIdE3endEv
FN:144,144,_ZN7zeroipc5ArrayIiE3endEv
FN:151,155,_ZN7zeroipc5ArrayIdE4fillERKd
FN:151,155,_ZN7zeroipc5ArrayIiE4fillERKi
FN:35,88,_ZN7zeroipc5ArrayIZN26ArrayTest_CustomTypes_Test8TestBodyEvE5PointEC2ERNS_6MemoryESt17basic_string_viewIcSt11char_traitsIcEEm
FN:35,88,_ZN7zeroipc5ArrayIZN43MemoryBoundaryTest_AlignmentBoundaries_Test8TestBodyEvE10Aligned128EC2ERNS_6MemoryESt17basic_string_viewIcSt11char_traitsIcEEm
FN:35,88,_ZN7zeroipc5ArrayIZN43MemoryBoundaryTest_AlignmentBoundaries_Test8TestBodyEvE9Aligned16EC2ERNS_6MemoryESt17basic_string_viewIcSt11char_traitsIcEEm
FN:35,88,_ZN7zeroipc5ArrayIZN43MemoryBoundaryTest_AlignmentBoundaries_Test8TestBodyEvE9Aligned64EC2ERNS_6MemoryESt17basic_string_viewIcSt11char_traitsIcEEm
FN:35,88,_ZN7zeroipc5ArrayIcEC2ERNS_6MemoryESt17basic_string_viewIcSt11char_traitsIcEEm
FN:35,88,_ZN7zeroipc5ArrayIdEC2ERNS_6MemoryESt17basic_string_viewIcSt11char_traitsIcEEm
FN:35,88,_ZN7zeroipc5ArrayIfEC2ERNS_6MemoryESt17basic_string_viewIcSt11char_traitsIcEEm
FN:35,88,_ZN7zeroipc5ArrayIhEC2ERNS_6MemoryESt17basic_string_viewIcSt11char_traitsIcEEm
FN:35,88,_ZN7zeroipc5ArrayIiEC2ERNS_6MemoryESt17basic_string_viewIcSt11char_traitsIcEEm
FN:35,88,_ZN7zeroipc5ArrayIjEC2ERNS_6MemoryESt17basic_string_viewIcSt11char_traitsIcEEm
FN:93,98,_ZN7zeroipc5ArrayIZN26ArrayTest_CustomTypes_Test8TestBodyEvE5PointEixEm
FN:93,98,_ZN7zeroipc5ArrayIZN43MemoryBoundaryTest_AlignmentBoundaries_Test8TestBodyEvE10Aligned128EixEm
FN:93,98,_ZN7zeroipc5ArrayIZN43MemoryBoundaryTest_AlignmentBoundaries_Test8TestBodyEvE9Aligned16EixEm
FN:93,98,_ZN7zeroipc5ArrayIZN43MemoryBoundaryTest_AlignmentBoundaries_Test8TestBodyEvE9Aligned64EixEm
FN:93,98,_ZN7zeroipc5ArrayIcEixEm
FN:93,98,_ZN7zeroipc5ArrayIdEixEm
FN:93,98,_ZN7zeroipc5ArrayIfEixEm
FN:93,98,_ZN7zeroipc5ArrayIhEixEm
FN:93,98,_ZN7zeroipc5ArrayIiEixEm
FN:93,98,_ZN7zeroipc5ArrayIjEixEm
FNDA:12,_ZN7zeroipc5ArrayIdE2atEm
FNDA:14,_ZN7zeroipc5ArrayIiE2atEm
FNDA:2,_ZN7zeroipc5ArrayIdE4dataEv
FNDA:4,_ZN7zeroipc5ArrayIiE4dataEv
FNDA:2,_ZNK7zeroipc5ArrayIdE8capacityEv
FNDA:4,_ZNK7zeroipc5ArrayIfE8capacityEv
FNDA:308,_ZNK7zeroipc5ArrayIiE8capacityEv
FNDA:2,_ZNK7zeroipc5ArrayIiE4nameEv
FNDA:2,_ZN7zeroipc5ArrayIdE5beginEv
FNDA:8,_ZN7zeroipc5ArrayIiE5beginEv
FNDA:2,_ZN7zeroipc5ArrayIdE3endEv
FNDA:8,_ZN7zeroipc5ArrayIiE3endEv
FNDA:2,_ZN7zeroipc5ArrayIdE4fillERKd
FNDA:2,_ZN7zeroipc5ArrayIiE4fillERKi
FNDA:2,_ZN7zeroipc5ArrayIZN26ArrayTest_CustomTypes_Test8TestBodyEvE5PointEC2ERNS_6MemoryESt17basic_string_viewIcSt11char_traitsIcEEm
FNDA:2,_ZN7zeroipc5ArrayIZN43MemoryBoundaryTest_AlignmentBoundaries_Test8TestBodyEvE10Aligned128EC2ERNS_6MemoryESt17basic_string_viewIcSt11char_traitsIcEEm
FNDA:2,_ZN7zeroipc5ArrayIZN43MemoryBoundaryTest_AlignmentBoundaries_Test8TestBodyEvE9Aligned16EC2ERNS_6MemoryESt17basic_string_viewIcSt11char_traitsIcEEm
FNDA:2,_ZN7zeroipc5ArrayIZN43MemoryBoundaryTest_AlignmentBoundaries_Test8TestBodyEvE9Aligned64EC2ERNS_6MemoryESt17basic_string_viewIcSt11char_traitsIcEEm
FNDA:4,_ZN7zeroipc5ArrayIcEC2ERNS_6MemoryESt17basic_string_viewIcSt11char_traitsIcEEm
FNDA:14,_ZN7zeroipc5ArrayIdEC2ERNS_6MemoryESt17basic_string_viewIcSt11char_traitsIcEEm
FNDA:12,_ZN7zeroipc5ArrayIfEC2ERNS_6MemoryESt17basic_string_viewIcSt11char_traitsIcEEm
FNDA:2,_ZN7zeroipc5ArrayIhEC2ERNS_6MemoryESt17basic_string_viewIcSt11char_traitsIcEEm
FNDA:20890,_ZN7zeroipc5ArrayIiEC2ERNS_6MemoryESt17basic_string_viewIcSt11char_traitsIcEEm
FNDA:2,_ZN7zeroipc5ArrayIjEC2ERNS_6MemoryESt17basic_string_viewIcSt11char_traitsIcEEm
FNDA:16,_ZN7zeroipc5ArrayIZN26ArrayTest_CustomTypes_Test8TestBodyEvE5PointEixEm
FNDA:2,_ZN7zeroipc5ArrayIZN43MemoryBoundaryTest_AlignmentBoundaries_Test8TestBodyEvE10Aligned128EixEm
FNDA:2,_ZN7zeroipc5ArrayIZN43MemoryBoundaryTest_AlignmentBoundaries_Test8TestBodyEvE9Aligned16EixEm
FNDA:2,_ZN7zeroipc5ArrayIZN43MemoryBoundaryTest_AlignmentBoundaries_Test8TestBodyEvE9Aligned64EixEm
FNDA:8,_ZN7zeroipc5ArrayIcEixEm
FNDA:632,_ZN7zeroipc5ArrayIdEixEm
FNDA:20,_ZN7zeroipc5ArrayIfEixEm
FNDA:4,_ZN7zeroipc5ArrayIhEixEm
FNDA:138186,_ZN7zeroipc5ArrayIiEixEm
FNDA:32,_ZN7zeroipc5ArrayIjEixEm
FNF:34
FNH:34
DA:35,20932
DA:36,20932
DA:38,20831
DA:39,6
DA:42,20692
DA:44,20462
DA:46,19722
DA:48,6
DA:49,6
DA:50,6
DA:57,19716
DA:58,19716
DA:59,19758
DA:60,19760
DA:61,19760
DA:64,740
DA:65,6
DA:68,734
DA:69,734
DA:71,730
DA:72,14
DA:76,716
DA:77,716
DA:80,716
DA:83,716
DA:85,716
DA:86,716
DA:88,20899
DA:93,138904
DA:94,138904
DA:95,4
DA:97,138900
DA:110,26
DA:111,26
DA:112,16
DA:114,10
DA:127,6
DA:133,314
DA:138,2
DA:143,10
DA:144,10
DA:151,4
DA:152,404
DA:153,400
DA:155,4
LF:45
LH:45
end_of_record
TN:
SF:/home/spinoza/github/beta/zeroipc/cpp/include/zeroipc/channel.h
FN:104,140,_ZN7zeroipc7ChannelIiEC2ERNS_6MemoryESt17basic_string_viewIcSt11char_traitsIcEEm
FN:176,188,_ZN7zeroipc7ChannelIiE4sendERKi
FN:193,207,_ZN7zeroipc7ChannelIiE8try_sendERKi
FN:232,241,_ZN7zeroipc7ChannelIiE4recvEv
FN:246,256,_ZN7zeroipc7ChannelIiE8try_recvEv
FN:261,278,_ZN7zeroipc7ChannelIiE12recv_timeoutENSt6chrono8durationIlSt5ratioILl1ELl1000EEEE
FN:283,286,_ZN7zeroipc7ChannelIiE5closeEv
FN:291,293,_ZNK7zeroipc7ChannelIiE9is_closedEv
FN:298,300,_ZNK7zeroipc7ChannelIiE8capacityEv
FN:305,307,_ZNK7zeroipc7ChannelIiE11is_bufferedEv
FN:351,380,_ZN7zeroipc7ChannelIiE15rendezvous_sendERKi
FN:382,404,_ZN7zeroipc7ChannelIiE15rendezvous_recvEv
FN:406,411,_ZNK7zeroipc7ChannelIiE8has_dataEv
FN:97,98,_ZN7zeroipc7ChannelIiEC2ERNS_6MemoryESt17basic_string_viewIcSt11char_traitsIcEE
FNDA:8,_ZN7zeroipc7ChannelIiEC2ERNS_6MemoryESt17basic_string_viewIcSt11char_traitsIcEEm
FNDA:10,_ZN7zeroipc7ChannelIiE4sendERKi
FNDA:10,_ZN7zeroipc7ChannelIiE8try_sendERKi
FNDA:16,_ZN7zeroipc7ChannelIiE4recvEv
FNDA:418972,_ZN7zeroipc7ChannelIiE8try_recvEv
FNDA:4,_ZN7zeroipc7ChannelIiE12recv_timeoutENSt6chrono8durationIlSt5ratioILl1ELl1000EEEE
FNDA:2,_ZN7zeroipc7ChannelIiE5closeEv
FNDA:2,_ZNK7zeroipc7ChannelIiE9is_closedEv
FNDA:4,_ZNK7zeroipc7ChannelIiE8capacityEv
FNDA:4,_ZNK7zeroipc7ChannelIiE11is_bufferedEv
FNDA:4,_ZN7zeroipc7ChannelIiE15rendezvous_sendERKi
FNDA:4,_ZN7zeroipc7ChannelIiE15rendezvous_recvEv
FNDA:0,_ZNK7zeroipc7ChannelIiE8has_dataEv
FNDA:4,_ZN7zeroipc7ChannelIiEC2ERNS_6MemoryESt17basic_string_viewIcSt11char_traitsIcEE
FNF:14
FNH:13
DA:97,4
DA:98,4
DA:104,8
DA:105,24
DA:107,8
DA:108,8
DA:109,8
DA:111,8
DA:112,8
DA:115,8
DA:116,8
DA:117,8
DA:118,8
DA:119,8
DA:120,8
DA:122,8
DA:126,4
DA:127,16
DA:130,4
DA:131,4
DA:132,4
DA:134,4
DA:135,4
DA:137,4
DA:138,4
DA:139,4
DA:140,8
DA:176,10
DA:177,10
DA:178,2
DA:181,8
DA:183,4
DA:186,4
DA:193,10
DA:194,10
DA:195,0
DA:198,10
DA:199,10
DA:202,0
DA:203,0
DA:205,0
DA:232,16
DA:233,16
DA:236,14
DA:239,2
DA:246,418972
DA:247,418972
DA:248,0
DA:251,418972
DA:252,2
DA:254,418970
DA:261,4
DA:264,4
DA:266,418974
DA:267,418972
DA:268,2
DA:270,418970
DA:271,0
DA:272,0
DA:274,418970
DA:277,2
DA:283,2
DA:284,2
DA:286,2
DA:291,2
DA:292,2
DA:298,4
DA:299,4
DA:305,4
DA:306,4
DA:351,4
DA:353,4
DA:356,4
DA:357,0
DA:358,0
DA:359,0
DA:361,0
DA:365,4
DA:366,4
DA:367,4
DA:370,8
DA:371,4
DA:372,0
DA:373,0
DA:375,4
DA:378,4
DA:379,4
DA:382,4
DA:384,4
DA:387,150475
DA:388,150471
DA:389,0
DA:390,0
DA:392,150471
DA:396,4
DA:399,4
DA:400,4
DA:402,4
DA:403,4
DA:406,0
DA:407,0
DA:408,0
DA:410,0
LF:103
LH:84
end_of_record
TN:
SF:/home/spinoza/github/beta/zeroipc/cpp/include/zeroipc/future.h
FN:104,122,_ZN7zeroipc6FutureIiE9set_valueERKi
FN:125,141,_ZN7zeroipc6FutureIdE9set_errorERKNSt7__cxx1112basic_stringIcSt11char_traitsIcESaIcEEE
FN:144,152,_ZN7zeroipc6FutureIdE3getEv
FN:144,152,_ZN7zeroipc6FutureIiE3getEv
FN:167,176,_ZN7zeroipc6FutureIiE7get_forENSt6chrono8durationIlSt5ratioILl1ELl1000EEEE
FN:179,182,_ZNK7zeroipc6FutureIdE8is_readyEv
FN:179,182,_ZNK7zeroipc6FutureIiE8is_readyEv
FN:185,187,_ZNK7zeroipc6FutureIdE5stateEv
FN:185,187,_ZNK7zeroipc6FutureIiE5stateEv
FN:214,223,_ZN7zeroipc6FutureIdE10wait_readyEv
FN:214,223,_ZN7zeroipc6FutureIiE10wait_readyEv
FN:225,239,_ZN7zeroipc6FutureIiE14wait_ready_forENSt6chrono8durationIlSt5ratioILl1ELl1000EEEE
FN:241,244,_ZN7zeroipc6FutureIdE12wake_waitersEv
FN:241,244,_ZN7zeroipc6FutureIiE12wake_waitersEv
FN:74,88,_ZN7zeroipc6FutureIdEC2ERNS_6MemoryESt17basic_string_viewIcSt11char_traitsIcEE
FN:74,88,_ZN7zeroipc6FutureIiEC2ERNS_6MemoryESt17basic_string_viewIcSt11char_traitsIcEE
FNDA:8,_ZN7zeroipc6FutureIiE9set_valueERKi
FNDA:2,_ZN7zeroipc6FutureIdE9set_errorERKNSt7__cxx1112basic_stringIcSt11char_traitsIcESaIcEEE
FNDA:2,_ZN7zeroipc6FutureIdE3getEv
FNDA:12,_ZN7zeroipc6FutureIiE3getEv
FNDA:4,_ZN7zeroipc6FutureIiE7get_forENSt6chrono8durationIlSt5ratioILl1ELl1000EEEE
FNDA:4,_ZNK7zeroipc6FutureIdE8is_readyEv
FNDA:963387,_ZNK7zeroipc6FutureIiE8is_readyEv
FNDA:2,_ZNK7zeroipc6FutureIdE5stateEv
FNDA:4,_ZNK7zeroipc6FutureIiE5stateEv
FNDA:2,_ZN7zeroipc6FutureIdE10wait_readyEv
FNDA:12,_ZN7zeroipc6FutureIiE10wait_readyEv
FNDA:4,_ZN7zeroipc6FutureIiE14wait_ready_forENSt6chrono8durationIlSt5ratioILl1ELl1000EEEE
FNDA:2,_ZN7zeroipc6FutureIdE12wake_waitersEv
FNDA:6,_ZN7zeroipc6FutureIiE12wake_waitersEv
FNDA:2,_ZN7zeroipc6FutureIdEC2ERNS_6MemoryESt17basic_string_viewIcSt11char_traitsIcEE
FNDA:6,_ZN7zeroipc6FutureIiEC2ERNS_6MemoryESt17basic_string_viewIcSt11char_traitsIcEE
FNF:16
FNH:16
DA:74,8
DA:75,16
DA:77,8
DA:78,8
DA:80,8
DA:81,8
DA:84,8
DA:85,8
DA:86,8
DA:87,8
DA:88,8
DA:104,8
DA:105,8
DA:106,8
DA:109,2
DA:112,6
DA:113,6
DA:114,6
DA:117,6
DA:120,6
DA:121,6
DA:125,2
DA:126,2
DA:127,2
DA:130,0
DA:133,2
DA:135,2
DA:136,2
DA:139,2
DA:140,2
DA:144,14
DA:145,14
DA:147,14
DA:148,14
DA:149,2
DA:151,12
DA:167,4
DA:168,4
DA:169,2
DA:170,2
DA:171,0
DA:173,2
DA:175,2
DA:179,963391
DA:180,963391
DA:181,957933
DA:185,6
DA:186,6
DA:214,14
DA:215,14
DA:217,680483
DA:219,673951
DA:222,14
DA:223,14
DA:225,4
DA:226,4
DA:227,4
DA:229,284118
DA:230,284116
DA:231,2
DA:232,2
DA:234,284114
DA:237,2
DA:238,2
DA:241,8
DA:244,8
LF:66
LH:64
end_of_record
TN:
SF:/home/spinoza/github/beta/zeroipc/cpp/include/zeroipc/lazy.h
FN:104,120,_ZN7zeroipc4LazyIdEC2ERNS_6MemoryESt17basic_string_viewIcSt11char_traitsIcEERKd
FN:104,120,_ZN7zeroipc4LazyIiEC2ERNS_6MemoryESt17basic_string_viewIcSt11char_traitsIcEERKi
FN:123,136,_ZN7zeroipc4LazyIdEC2ERNS_6MemoryESt17basic_string_viewIcSt11char_traitsIcEENS1_13ComputationOp6OpTypeE
FN:123,136,_ZN7zeroipc4LazyIiEC2ERNS_6MemoryESt17basic_string_viewIcSt11char_traitsIcEENS1_13ComputationOp6OpTypeE
FN:152,185,_ZN7zeroipc4LazyIdE5forceEv
FN:152,185,_ZN7zeroipc4LazyIiE5forceEv
FN:188,190,_ZNK7zeroipc4LazyIdE11is_computedEv
FN:188,190,_ZNK7zeroipc4LazyIiE11is_computedEv
FN:193,198,_ZNK7zeroipc4LazyIiE4peekEv
FN:218,225,_ZN7zeroipc4LazyIdE3addERNS_6MemoryERKNSt7__cxx1112basic_stringIcSt11char_traitsIcESaIcEEERS1_SC_
FN:218,225,_ZN7zeroipc4LazyIiE3addERNS_6MemoryERKNSt7__cxx1112basic_stringIcSt11char_traitsIcESaIcEEERS1_SC_
FN:244,246,_ZNK7zeroipc4LazyIdE13compute_countEv
FN:253,288,_ZN7zeroipc4LazyIdE7computeEv
FN:253,288,_ZN7zeroipc4LazyIiE7computeEv
FN:323,334,_ZN7zeroipc4LazyIbEC2ERNS_6MemoryESt17basic_string_viewIcSt11char_traitsIcEEb
FN:336,352,_ZN7zeroipc4LazyIbE5forceEv
FN:355,372,_ZN7zeroipc4LazyIbE8lazy_andERNS_6MemoryERKNSt7__cxx1112basic_stringIcSt11char_traitsIcESaIcEEERS1_SC_
FN:379,397,_ZN7zeroipc4LazyIbE7computeEv
FNDA:4,_ZN7zeroipc4LazyIdEC2ERNS_6MemoryESt17basic_string_viewIcSt11char_traitsIcEERKd
FNDA:6,_ZN7zeroipc4LazyIiEC2ERNS_6MemoryESt17basic_string_viewIcSt11char_traitsIcEERKi
FNDA:2,_ZN7zeroipc4LazyIdEC2ERNS_6MemoryESt17basic_string_viewIcSt11char_traitsIcEENS1_13ComputationOp6OpTypeE
FNDA:2,_ZN7zeroipc4LazyIiEC2ERNS_6MemoryESt17basic_string_viewIcSt11char_traitsIcEENS1_13ComputationOp6OpTypeE
FNDA:8,_ZN7zeroipc4LazyIdE5forceEv
FNDA:26,_ZN7zeroipc4LazyIiE5forceEv
FNDA:4,_ZNK7zeroipc4LazyIdE11is_computedEv
FNDA:6,_ZNK7zeroipc4LazyIiE11is_computedEv
FNDA:2,_ZNK7zeroipc4LazyIiE4peekEv
FNDA:2,_ZN7zeroipc4LazyIdE3addERNS_6MemoryERKNSt7__cxx1112basic_stringIcSt11char_traitsIcESaIcEEERS1_SC_
FNDA:2,_ZN7zeroipc4LazyIiE3addERNS_6MemoryERKNSt7__cxx1112basic_stringIcSt11char_traitsIcESaIcEEERS1_SC_
FNDA:2,_ZNK7zeroipc4LazyIdE13compute_countEv
FNDA:2,_ZN7zeroipc4LazyIdE7computeEv
FNDA:2,_ZN7zeroipc4LazyIiE7computeEv
FNDA:6,_ZN7zeroipc4LazyIbEC2ERNS_6MemoryESt17basic_string_viewIcSt11char_traitsIcEEb
FNDA:4,_ZN7zeroipc4LazyIbE5forceEv
FNDA:2,_ZN7zeroipc4LazyIbE8lazy_andERNS_6MemoryERKNSt7__cxx1112basic_stringIcSt11char_traitsIcESaIcEEERS1_SC_
FNDA:0,_ZN7zeroipc4LazyIbE7computeEv
FNF:18
FNH:17
DA:104,10
DA:105,20
DA:107,10
DA:108,10
DA:110,10
DA:111,10
DA:114,10
DA:115,10
DA:116,10
DA:117,10
DA:118,10
DA:119,10
DA:120,10
DA:123,4
DA:124,8
DA:126,4
DA:127,4
DA:129,4
DA:130,4
DA:132,4
DA:133,4
DA:134,4
DA:135,4
DA:136,4
DA:152,34
DA:153,34
DA:156,34
DA:161,4
DA:162,4
DA:163,4
DA:164,4
DA:165,4
DA:166,0
DA:167,0
DA:169,0
DA:170,0
DA:175,0
DA:176,30
DA:177,30
DA:178,30
DA:180,0
DA:181,0
DA:183,0
DA:188,10
DA:189,10
DA:193,2
DA:194,2
DA:195,2
DA:197,0
DA:218,4
DA:220,4
DA:221,4
DA:222,4
DA:223,4
DA:224,4
DA:225,0
DA:244,2
DA:245,4
DA:253,4
DA:254,4
DA:255,0
DA:256,0
DA:258,4
DA:260,4
DA:261,4
DA:266,0
DA:268,0
DA:269,0
DA:274,0
DA:276,0
DA:281,0
DA:283,0
DA:285,0
DA:286,0
DA:323,6
DA:324,12
DA:326,6
DA:327,6
DA:328,6
DA:330,6
DA:331,6
DA:332,6
DA:333,6
DA:334,6
DA:336,4
DA:337,4
DA:339,4
DA:342,0
DA:343,0
DA:344,0
DA:345,0
DA:348,4
DA:349,0
DA:351,4
DA:355,2
DA:357,2
DA:358,2
DA:359,2
DA:362,2
DA:363,0
DA:364,0
DA:366,2
DA:367,2
DA:368,2
DA:369,2
DA:371,2
DA:372,0
DA:379,0
DA:380,0
DA:381,0
DA:382,0
DA:383,0
DA:384,0
DA:385,0
DA:386,0
DA:387,0
DA:388,0
DA:389,0
DA:390,0
DA:391,0
DA:392,0
DA:393,0
DA:394,0
DA:395,0
LF:124
LH:78
end_of_record
TN:
SF:/home/spinoza/github/beta/zeroipc/cpp/include/zeroipc/map.h
FN:136,158,_ZNK7zeroipc3MapIidE4findERKi
FN:136,158,_ZNK7zeroipc3MapIiiE4findERKi
FN:161,184,_ZN7zeroipc3MapIidE5eraseERKi
FN:187,189,_ZNK7zeroipc3MapIidE8containsERKi
FN:192,194,_ZNK7zeroipc3MapIidE4sizeEv
FN:192,194,_ZNK7zeroipc3MapIiiE4sizeEv
FN:220,230,_ZNK7zeroipc3MapIidE8hash_keyERKi
FN:220,230,_ZNK7zeroipc3MapIiiE8hash_keyERKi
FN:232,238,_ZNK7zeroipc3MapIidE10keys_equalERKiS3_
FN:232,238,_ZNK7zeroipc3MapIiiE10keys_equalERKiS3_
FN:38,69,_ZN7zeroipc3MapIidEC2ERNS_6MemoryESt17basic_string_viewIcSt11char_traitsIcEEm
FN:38,69,_ZN7zeroipc3MapIiiEC2ERNS_6MemoryESt17basic_string_viewIcSt11char_traitsIcEEm
FN:72,89,_ZN7zeroipc3MapIiiEC2ERNS_6MemoryESt17basic_string_viewIcSt11char_traitsIcEE
FN:92,133,_ZN7zeroipc3MapIidE6insertERKiRKd
FN:92,133,_ZN7zeroipc3MapIiiE6insertERKiS3_
FNDA:10,_ZNK7zeroipc3MapIidE4findERKi
FNDA:802,_ZNK7zeroipc3MapIiiE4findERKi
FNDA:2,_ZN7zeroipc3MapIidE5eraseERKi
FNDA:6,_ZNK7zeroipc3MapIidE8containsERKi
FNDA:4,_ZNK7zeroipc3MapIidE4sizeEv
FNDA:4,_ZNK7zeroipc3MapIiiE4sizeEv
FNDA:18,_ZNK7zeroipc3MapIidE8hash_keyERKi
FNDA:1606,_ZNK7zeroipc3MapIiiE8hash_keyERKi
FNDA:10,_ZNK7zeroipc3MapIidE10keys_equalERKiS3_
FNDA:802,_ZNK7zeroipc3MapIiiE10keys_equalERKiS3_
FNDA:2,_ZN7zeroipc3MapIidEC2ERNS_6MemoryESt17basic_string_viewIcSt11char_traitsIcEEm
FNDA:4,_ZN7zeroipc3MapIiiEC2ERNS_6MemoryESt17basic_string_viewIcSt11char_traitsIcEEm
FNDA:2,_ZN7zeroipc3MapIiiEC2ERNS_6MemoryESt17basic_string_viewIcSt11char_traitsIcEE
FNDA:6,_ZN7zeroipc3MapIidE6insertERKiRKd
FNDA:804,_ZN7zeroipc3MapIiiE6insertERKiS3_
FNF:15
FNH:15
DA:38,6
DA:39,12
DA:41,6
DA:42,0
DA:46,6
DA:47,0
DA:50,6
DA:51,6
DA:53,6
DA:54,6
DA:57,6
DA:58,6
DA:59,6
DA:60,6
DA:62,6
DA:63,6
DA:66,2306
DA:67,2300
DA:69,6
DA:72,2
DA:73,4
DA:76,2
DA:77,0
DA:80,2
DA:81,2
DA:83,2
DA:84,0
DA:87,2
DA:88,2
DA:89,2
DA:92,810
DA:93,810
DA:94,810
DA:97,810
DA:98,810
DA:99,810
DA:101,810
DA:102,1620
DA:106,808
DA:107,808
DA:108,808
DA:109,810
DA:113,2
DA:114,2
DA:115,2
DA:116,2
DA:121,0
DA:122,0
DA:125,0
DA:126,0
DA:127,0
DA:128,0
DA:132,0
DA:136,812
DA:137,812
DA:138,812
DA:140,814
DA:141,814
DA:142,814
DA:144,814
DA:146,814
DA:147,4
DA:150,810
DA:151,808
DA:157,0
DA:161,2
DA:162,2
DA:163,2
DA:165,2
DA:166,2
DA:167,2
DA:169,2
DA:171,2
DA:172,0
DA:175,2
DA:177,2
DA:178,2
DA:179,2
DA:183,0
DA:187,6
DA:188,6
DA:192,8
DA:193,16
DA:220,1624
DA:223,1624
DA:232,812
DA:234,812
LF:87
LH:73
end_of_record
TN:
SF:/home/spinoza/github/beta/zeroipc/cpp/include/zeroipc/memory.h
FN:106,108,_ZN7zeroipc6Memory6unlinkEv
FN:113,115,_ZN7zeroipc6Memory6unlinkERKNSt7__cxx1112basic_stringIcSt11char_traitsIcESaIcEEE
FN:120,120,_ZN7zeroipc6Memory4dataEv
FN:126,126,_ZN7zeroipc6Memory4baseEv
FN:132,137,_ZN7zeroipc6Memory2atEm
FN:152,162,_ZN7zeroipc6Memory8allocateESt17basic_string_viewIcSt11char_traitsIcEEm
FN:171,179,_ZN7zeroipc6Memory4findESt17basic_string_viewIcSt11char_traitsIcEERmS5_
FN:184,184,_ZN7zeroipc6Memory5tableEv
FN:190,190,_ZNK7zeroipc6Memory4sizeEv
FN:195,195,_ZNK7zeroipc6Memory4nameB5cxx11Ev
FN:200,200,_ZNK7zeroipc6Memory8is_ownerEv
FN:203,238,_ZN7zeroipc6Memory6createEv
FN:240,264,_ZN7zeroipc6Memory4openEv
FN:30,47,_ZN7zeroipc6MemoryC2ERKNSt7__cxx1112basic_stringIcSt11char_traitsIcESaIcEEEmm
FN:49,56,_ZN7zeroipc6MemoryD2Ev
FN:63,74,_ZN7zeroipc6MemoryC2EOS0_
FN:76,101,_ZN7zeroipc6MemoryaSEOS0_
FNDA:41,_ZN7zeroipc6Memory6unlinkEv
FNDA:598,_ZN7zeroipc6Memory6unlinkERKNSt7__cxx1112basic_stringIcSt11char_traitsIcESaIcEEE
FNDA:3,_ZN7zeroipc6Memory4dataEv
FNDA:1158,_ZN7zeroipc6Memory4baseEv
FNDA:40886,_ZN7zeroipc6Memory2atEm
FNDA:2942,_ZN7zeroipc6Memory8allocateESt17basic_string_viewIcSt11char_traitsIcEEm
FNDA:108,_ZN7zeroipc6Memory4findESt17basic_string_viewIcSt11char_traitsIcEERmS5_
FNDA:22216,_ZN7zeroipc6Memory5tableEv
FNDA:12,_ZNK7zeroipc6Memory4sizeEv
FNDA:3,_ZNK7zeroipc6Memory4nameB5cxx11Ev
FNDA:6,_ZNK7zeroipc6Memory8is_ownerEv
FNDA:512,_ZN7zeroipc6Memory6createEv
FNDA:19,_ZN7zeroipc6Memory4openEv
FNDA:531,_ZN7zeroipc6MemoryC2ERKNSt7__cxx1112basic_stringIcSt11char_traitsIcESaIcEEEmm
FNDA:533,_ZN7zeroipc6MemoryD2Ev
FNDA:5,_ZN7zeroipc6MemoryC2EOS0_
FNDA:5,_ZN7zeroipc6MemoryaSEOS0_
FNF:17
FNH:17
DA:30,531
DA:31,531
DA:32,531
DA:33,531
DA:34,531
DA:35,531
DA:36,531
DA:37,531
DA:39,531
DA:40,512
DA:42,19
DA:46,528
DA:47,534
DA:49,533
DA:50,533
DA:51,523
DA:53,533
DA:54,523
DA:56,533
DA:63,5
DA:64,5
DA:65,5
DA:66,5
DA:67,5
DA:68,5
DA:69,5
DA:70,5
DA:71,5
DA:72,5
DA:73,5
DA:74,5
DA:76,5
DA:77,5
DA:79,5
DA:80,5
DA:82,5
DA:83,5
DA:87,5
DA:88,5
DA:89,5
DA:90,5
DA:91,5
DA:92,5
DA:93,5
DA:96,5
DA:97,5
DA:98,5
DA:100,5
DA:106,41
DA:107,41
DA:108,41
DA:113,598
DA:114,598
DA:115,598
DA:120,3
DA:126,1158
DA:132,40886
DA:133,40886
DA:134,5
DA:136,40881
DA:152,2942
DA:154,2942
DA:157,2942
DA:158,1874
DA:161,1064
DA:171,108
DA:172,108
DA:173,108
DA:174,106
DA:175,106
DA:176,106
DA:178,2
DA:184,22216
DA:190,12
DA:195,3
DA:200,6
DA:203,512
DA:205,512
DA:206,512
DA:207,4
DA:209,4
DA:210,4
DA:213,4
DA:214,0
DA:215,0
DA:220,512
DA:221,0
DA:222,0
DA:223,0
DA:224,0
DA:228,512
DA:229,512
DA:230,0
DA:231,0
DA:232,0
DA:233,0
DA:237,512
DA:238,512
DA:240,19
DA:242,19
DA:243,19
DA:244,6
DA:245,15
DA:250,16
DA:251,0
DA:252,0
DA:253,0
DA:255,16
DA:258,16
DA:259,16
DA:260,0
DA:261,0
DA:262,0
DA:264,16
LF:114
LH:98
end_of_record
TN:
SF:/home/spinoza/github/beta/zeroipc/cpp/include/zeroipc/pool.h
FN:111,135,_ZN7zeroipc4PoolIZN36NewStructuresTest_PoolConstruct_Test8TestBodyEvE5PointE10deallocateEPS2_
FN:111,135,_ZN7zeroipc4PoolIZN42NewStructuresTest_PoolBasicOperations_Test8TestBodyEvE10TestObjectE10deallocateEPS2_
FN:111,135,_ZN7zeroipc4PoolIiE10deallocateEPi
FN:139,145,_ZN7zeroipc4PoolIZN36NewStructuresTest_PoolConstruct_Test8TestBodyEvE5PointE9constructIJiiEEESt8optionalIPS2_EDpOT_
FN:148,153,_ZN7zeroipc4PoolIZN36NewStructuresTest_PoolConstruct_Test8TestBodyEvE5PointE7destroyEPS2_
FN:156,158,_ZNK7zeroipc4PoolIZN36NewStructuresTest_PoolConstruct_Test8TestBodyEvE5PointE9allocatedEv
FN:156,158,_ZNK7zeroipc4PoolIZN42NewStructuresTest_PoolBasicOperations_Test8TestBodyEvE10TestObjectE9allocatedEv
FN:156,158,_ZNK7zeroipc4PoolIiE9allocatedEv
FN:161,163,_ZNK7zeroipc4PoolIZN42NewStructuresTest_PoolBasicOperations_Test8TestBodyEvE10TestObjectE9availableEv
FN:166,168,_ZNK7zeroipc4PoolIZN42NewStructuresTest_PoolBasicOperations_Test8TestBodyEvE10TestObjectE8capacityEv
FN:30,62,_ZN7zeroipc4PoolIZN36NewStructuresTest_PoolConstruct_Test8TestBodyEvE5PointEC2ERNS_6MemoryESt17basic_string_viewIcSt11char_traitsIcEEm
FN:30,62,_ZN7zeroipc4PoolIZN42NewStructuresTest_PoolBasicOperations_Test8TestBodyEvE10TestObjectEC2ERNS_6MemoryESt17basic_string_viewIcSt11char_traitsIcEEm
FN:30,62,_ZN7zeroipc4PoolIiEC2ERNS_6MemoryESt17basic_string_viewIcSt11char_traitsIcEEm
FN:85,108,_ZN7zeroipc4PoolIZN36NewStructuresTest_PoolConstruct_Test8TestBodyEvE5PointE8allocateEv
FN:85,108,_ZN7zeroipc4PoolIZN42NewStructuresTest_PoolBasicOperations_Test8TestBodyEvE10TestObjectE8allocateEv
FN:85,108,_ZN7zeroipc4PoolIiE8allocateEv
FNDA:2,_ZN7zeroipc4PoolIZN36NewStructuresTest_PoolConstruct_Test8TestBodyEvE5PointE10deallocateEPS2_
FNDA:2,_ZN7zeroipc4PoolIZN42NewStructuresTest_PoolBasicOperations_Test8TestBodyEvE10TestObjectE10deallocateEPS2_
FNDA:160,_ZN7zeroipc4PoolIiE10deallocateEPi
FNDA:2,_ZN7zeroipc4PoolIZN36NewStructuresTest_PoolConstruct_Test8TestBodyEvE5PointE9constructIJiiEEESt8optionalIPS2_EDpOT_
FNDA:2,_ZN7zeroipc4PoolIZN36NewStructuresTest_PoolConstruct_Test8TestBodyEvE5PointE7destroyEPS2_
FNDA:2,_ZNK7zeroipc4PoolIZN36NewStructuresTest_PoolConstruct_Test8TestBodyEvE5PointE9allocatedEv
FNDA:12,_ZNK7zeroipc4PoolIZN42NewStructuresTest_PoolBasicOperations_Test8TestBodyEvE10TestObjectE9allocatedEv
FNDA:4,_ZNK7zeroipc4PoolIiE9allocatedEv
FNDA:4,_ZNK7zeroipc4PoolIZN42NewStructuresTest_PoolBasicOperations_Test8TestBodyEvE10TestObjectE9availableEv
FNDA:2,_ZNK7zeroipc4PoolIZN42NewStructuresTest_PoolBasicOperations_Test8TestBodyEvE10TestObjectE8capacityEv
FNDA:2,_ZN7zeroipc4PoolIZN36NewStructuresTest_PoolConstruct_Test8TestBodyEvE5PointEC2ERNS_6MemoryESt17basic_string_viewIcSt11char_traitsIcEEm
FNDA:2,_ZN7zeroipc4PoolIZN42NewStructuresTest_PoolBasicOperations_Test8TestBodyEvE10TestObjectEC2ERNS_6MemoryESt17basic_string_viewIcSt11char_traitsIcEEm
FNDA:2,_ZN7zeroipc4PoolIiEC2ERNS_6MemoryESt17basic_string_viewIcSt11char_traitsIcEEm
FNDA:2,_ZN7zeroipc4PoolIZN36NewStructuresTest_PoolConstruct_Test8TestBodyEvE5PointE8allocateEv
FNDA:6,_ZN7zeroipc4PoolIZN42NewStructuresTest_PoolBasicOperations_Test8TestBodyEvE10TestObjectE8allocateEv
FNDA:159,_ZN7zeroipc4PoolIiE8allocateEv
FNF:16
FNH:16
DA:30,6
DA:31,12
DA:33,6
DA:34,0
DA:38,6
DA:39,0
DA:42,6
DA:43,6
DA:45,6
DA:46,6
DA:49,6
DA:50,6
DA:51,6
DA:52,6
DA:54,6
DA:55,6
DA:58,230
DA:59,224
DA:61,6
DA:62,6
DA:85,167
DA:90,173
DA:92,173
DA:93,0
DA:96,173
DA:99,347
DA:104,168
DA:105,168
DA:107,6
DA:111,164
DA:112,164
DA:115,164
DA:117,164
DA:120,164
DA:121,0
DA:127,164
DA:128,164
DA:129,328
DA:134,164
DA:139,2
DA:140,2
DA:141,2
DA:142,2
DA:144,2
DA:148,2
DA:149,2
DA:150,2
DA:151,2
DA:153,2
DA:156,18
DA:157,36
DA:161,4
DA:162,4
DA:166,2
DA:167,2
LF:55
LH:51
end_of_record
TN:
SF:/home/spinoza/github/beta/zeroipc/cpp/include/zeroipc/queue.h
FN:127,130,_ZNK7zeroipc5QueueIZN46FailureRecoveryTest_PartialWriteDetection_Test8TestBodyEvE16DataWithChecksumE5emptyEv
FN:127,130,_ZNK7zeroipc5QueueIiE5emptyEv
FN:127,130,_ZNK7zeroipc5QueueImE5emptyEv
FN:133,137,_ZNK7zeroipc5QueueIdE4fullEv
FN:133,137,_ZNK7zeroipc5QueueIiE4fullEv
FN:140,148,_ZNK7zeroipc5QueueIfE4sizeEv
FN:140,148,_ZNK7zeroipc5QueueIiE4sizeEv
FN:150,150,_ZNK7zeroipc5QueueIfE8capacityEv
FN:150,150,_ZNK7zeroipc5QueueIiE8capacityEv
FN:23,49,_ZN7zeroipc5QueueIZN27LockFreeTest_EdgeCases_Test8TestBodyEvE9LargeDataEC2ERNS_6MemoryESt17basic_string_viewIcSt11char_traitsIcEEm
FN:23,49,_ZN7zeroipc5QueueIZN33EdgeCaseTest_LargeStructType_Test8TestBodyEvE11LargeStructEC2ERNS_6MemoryESt17basic_string_viewIcSt11char_traitsIcEEm
FN:23,49,_ZN7zeroipc5QueueIZN40MemoryBoundaryTest_LargeStructTypes_Test8TestBodyEvE10HugeStructEC2ERNS_6MemoryESt17basic_string_viewIcSt11char_traitsIcEEm
FN:23,49,_ZN7zeroipc5QueueIZN44MemoryBoundaryTest_MaximumQueueCapacity_Test8TestBodyEvE10TestStructEC2ERNS_6MemoryESt17basic_string_viewIcSt11char_traitsIcEEm
FN:23,49,_ZN7zeroipc5QueueIZN46FailureRecoveryTest_PartialWriteDetection_Test8TestBodyEvE16DataWithChecksumEC2ERNS_6MemoryESt17basic_string_viewIcSt11char_traitsIcEEm
FN:23,49,_ZN7zeroipc5QueueIdEC2ERNS_6MemoryESt17basic_string_viewIcSt11char_traitsIcEEm
FN:23,49,_ZN7zeroipc5QueueIfEC2ERNS_6MemoryESt17basic_string_viewIcSt11char_traitsIcEEm
FN:23,49,_ZN7zeroipc5QueueIiEC2ERNS_6MemoryESt17basic_string_viewIcSt11char_traitsIcEEm
FN:23,49,_ZN7zeroipc5QueueIlEC2ERNS_6MemoryESt17basic_string_viewIcSt11char_traitsIcEEm
FN:23,49,_ZN7zeroipc5QueueImEC2ERNS_6MemoryESt17basic_string_viewIcSt11char_traitsIcEEm
FN:52,69,_ZN7zeroipc5QueueIdEC2ERNS_6MemoryESt17basic_string_viewIcSt11char_traitsIcEE
FN:52,69,_ZN7zeroipc5QueueIfEC2ERNS_6MemoryESt17basic_string_viewIcSt11char_traitsIcEE
FN:52,69,_ZN7zeroipc5QueueIiEC2ERNS_6MemoryESt17basic_string_viewIcSt11char_traitsIcEE
FN:72,96,_ZN7zeroipc5QueueIZN27LockFreeTest_EdgeCases_Test8TestBodyEvE9LargeDataE4pushERKS2_
FN:72,96,_ZN7zeroipc5QueueIZN33EdgeCaseTest_LargeStructType_Test8TestBodyEvE11LargeStructE4pushERKS2_
FN:72,96,_ZN7zeroipc5QueueIZN40MemoryBoundaryTest_LargeStructTypes_Test8TestBodyEvE10HugeStructE4pushERKS2_
FN:72,96,_ZN7zeroipc5QueueIZN44MemoryBoundaryTest_MaximumQueueCapacity_Test8TestBodyEvE10TestStructE4pushERKS2_
FN:72,96,_ZN7zeroipc5QueueIZN46FailureRecoveryTest_PartialWriteDetection_Test8TestBodyEvE16DataWithChecksumE4pushERKS2_
FN:72,96,_ZN7zeroipc5QueueIdE4pushERKd
FN:72,96,_ZN7zeroipc5QueueIfE4pushERKf
FN:72,96,_ZN7zeroipc5QueueIiE4pushERKi
FN:72,96,_ZN7zeroipc5QueueIlE4pushERKl
FN:72,96,_ZN7zeroipc5QueueImE4pushERKm
FN:99,124,_ZN7zeroipc5QueueIZN27LockFreeTest_EdgeCases_Test8TestBodyEvE9LargeDataE3popEv
FN:99,124,_ZN7zeroipc5QueueIZN33EdgeCaseTest_LargeStructType_Test8TestBodyEvE11LargeStructE3popEv
FN:99,124,_ZN7zeroipc5QueueIZN46FailureRecoveryTest_PartialWriteDetection_Test8TestBodyEvE16DataWithChecksumE3popEv
FN:99,124,_ZN7zeroipc5QueueIdE3popEv
FN:99,124,_ZN7zeroipc5QueueIfE3popEv
FN:99,124,_ZN7zeroipc5QueueIiE3popEv
FN:99,124,_ZN7zeroipc5QueueIlE3popEv
FN:99,124,_ZN7zeroipc5QueueImE3popEv
FNDA:102,_ZNK7zeroipc5QueueIZN46FailureRecoveryTest_PartialWriteDetection_Test8TestBodyEvE16DataWithChecksumE5emptyEv
FNDA:72267,_ZNK7zeroipc5QueueIiE5emptyEv
FNDA:20000,_ZNK7zeroipc5QueueImE5emptyEv
FNDA:2,_ZNK7zeroipc5QueueIdE4fullEv
FNDA:216,_ZNK7zeroipc5QueueIiE4fullEv
FNDA:2,_ZNK7zeroipc5QueueIfE4sizeEv
FNDA:63248,_ZNK7zeroipc5QueueIiE4sizeEv
FNDA:2,_ZNK7zeroipc5QueueIfE8capacityEv
FNDA:4,_ZNK7zeroipc5QueueIiE8capacityEv
FNDA:2,_ZN7zeroipc5QueueIZN27LockFreeTest_EdgeCases_Test8TestBodyEvE9LargeDataEC2ERNS_6MemoryESt17basic_string_viewIcSt11char_traitsIcEEm
FNDA:2,_ZN7zeroipc5QueueIZN33EdgeCaseTest_LargeStructType_Test8TestBodyEvE11LargeStructEC2ERNS_6MemoryESt17basic_string_viewIcSt11char_traitsIcEEm
FNDA:2,_ZN7zeroipc5QueueIZN40MemoryBoundaryTest_LargeStructTypes_Test8TestBodyEvE10HugeStructEC2ERNS_6MemoryESt17basic_string_viewIcSt11char_traitsIcEEm
FNDA:2,_ZN7zeroipc5QueueIZN44MemoryBoundaryTest_MaximumQueueCapacity_Test8TestBodyEvE10TestStructEC2ERNS_6MemoryESt17basic_string_viewIcSt11char_traitsIcEEm
FNDA:2,_ZN7zeroipc5QueueIZN46FailureRecoveryTest_PartialWriteDetection_Test8TestBodyEvE16DataWithChecksumEC2ERNS_6MemoryESt17basic_string_viewIcSt11char_traitsIcEEm
FNDA:42,_ZN7zeroipc5QueueIdEC2ERNS_6MemoryESt17basic_string_viewIcSt11char_traitsIcEEm
FNDA:2,_ZN7zeroipc5QueueIfEC2ERNS_6MemoryESt17basic_string_viewIcSt11char_traitsIcEEm
FNDA:2498,_ZN7zeroipc5QueueIiEC2ERNS_6MemoryESt17basic_string_viewIcSt11char_traitsIcEEm
FNDA:2,_ZN7zeroipc5QueueIlEC2ERNS_6MemoryESt17basic_string_viewIcSt11char_traitsIcEEm
FNDA:6,_ZN7zeroipc5QueueImEC2ERNS_6MemoryESt17basic_string_viewIcSt11char_traitsIcEEm
FNDA:42,_ZN7zeroipc5QueueIdEC2ERNS_6MemoryESt17basic_string_viewIcSt11char_traitsIcEE
FNDA:2,_ZN7zeroipc5QueueIfEC2ERNS_6MemoryESt17basic_string_viewIcSt11char_traitsIcEE
FNDA:6,_ZN7zeroipc5QueueIiEC2ERNS_6MemoryESt17basic_string_viewIcSt11char_traitsIcEE
FNDA:2,_ZN7zeroipc5QueueIZN27LockFreeTest_EdgeCases_Test8TestBodyEvE9LargeDataE4pushERKS2_
FNDA:2,_ZN7zeroipc5QueueIZN33EdgeCaseTest_LargeStructType_Test8TestBodyEvE11LargeStructE4pushERKS2_
FNDA:20,_ZN7zeroipc5QueueIZN40MemoryBoundaryTest_LargeStructTypes_Test8TestBodyEvE10HugeStructE4pushERKS2_
FNDA:204594,_ZN7zeroipc5QueueIZN44MemoryBoundaryTest_MaximumQueueCapacity_Test8TestBodyEvE10TestStructE4pushERKS2_
FNDA:100,_ZN7zeroipc5QueueIZN46FailureRecoveryTest_PartialWriteDetection_Test8TestBodyEvE16DataWithChecksumE4pushERKS2_
FNDA:2000038,_ZN7zeroipc5QueueIdE4pushERKd
FNDA:4,_ZN7zeroipc5QueueIfE4pushERKf
FNDA:261242903,_ZN7zeroipc5QueueIiE4pushERKi
FNDA:6,_ZN7zeroipc5QueueIlE4pushERKl
FNDA:4672308,_ZN7zeroipc5QueueImE4pushERKm
FNDA:2,_ZN7zeroipc5QueueIZN27LockFreeTest_EdgeCases_Test8TestBodyEvE9LargeDataE3popEv
FNDA:2,_ZN7zeroipc5QueueIZN33EdgeCaseTest_LargeStructType_Test8TestBodyEvE11LargeStructE3popEv
FNDA:100,_ZN7zeroipc5QueueIZN46FailureRecoveryTest_PartialWriteDetection_Test8TestBodyEvE16DataWithChecksumE3popEv
FNDA:60,_ZN7zeroipc5QueueIdE3popEv
FNDA:2,_ZN7zeroipc5QueueIfE3popEv
FNDA:47110568,_ZN7zeroipc5QueueIiE3popEv
FNDA:6,_ZN7zeroipc5QueueIlE3popEv
FNDA:2690541,_ZN7zeroipc5QueueImE3popEv
FNF:40
FNH:40
DA:23,2560
DA:24,5120
DA:26,2560
DA:27,4
DA:31,2556
DA:32,2
DA:35,2554
DA:36,2554
DA:38,680
DA:39,680
DA:42,680
DA:43,680
DA:44,680
DA:45,680
DA:47,680
DA:48,680
DA:49,2560
DA:52,50
DA:53,100
DA:56,50
DA:57,0
DA:60,50
DA:61,50
DA:63,50
DA:64,2
DA:67,48
DA:68,48
DA:69,48
DA:72,268119977
DA:77,269842483
DA:78,269622546
DA:81,539284617
DA:82,218297770
DA:84,102941184
DA:90,49854377
DA:95,49854377
DA:99,49801281
DA:104,51850152
DA:107,103263611
DA:108,2188788
DA:111,49441836
DA:112,99111859
DA:121,47621152
DA:123,47621152
DA:127,92369
DA:128,92369
DA:129,187081
DA:133,218
DA:134,218
DA:135,218
DA:136,436
DA:140,63250
DA:141,63250
DA:142,63854
DA:143,64768
DA:144,55119
DA:146,9649
DA:150,6
LF:58
LH:57
end_of_record
TN:
SF:/home/spinoza/github/beta/zeroipc/cpp/include/zeroipc/ring.h
FN:106,133,_ZN7zeroipc4RingIdE4readEv
FN:106,133,_ZN7zeroipc4RingIiE4readEv
FN:136,163,_ZN7zeroipc4RingIdE10write_bulkEPKdm
FN:136,163,_ZN7zeroipc4RingIiE10write_bulkEPKim
FN:166,193,_ZN7zeroipc4RingIdE9read_bulkEPdm
FN:166,193,_ZN7zeroipc4RingIiE9read_bulkEPim
FN:196,200,_ZNK7zeroipc4RingIiE9availableEv
FN:215,219,_ZNK7zeroipc4RingIiE5emptyEv
FN:222,226,_ZNK7zeroipc4RingIiE4fullEv
FN:24,55,_ZN7zeroipc4RingIdEC2ERNS_6MemoryESt17basic_string_viewIcSt11char_traitsIcEEm
FN:24,55,_ZN7zeroipc4RingIiEC2ERNS_6MemoryESt17basic_string_viewIcSt11char_traitsIcEEm
FN:77,103,_ZN7zeroipc4RingIdE5writeERKd
FN:77,103,_ZN7zeroipc4RingIiE5writeERKi
FNDA:10,_ZN7zeroipc4RingIdE4readEv
FNDA:38,_ZN7zeroipc4RingIiE4readEv
FNDA:2,_ZN7zeroipc4RingIdE10write_bulkEPKdm
FNDA:2,_ZN7zeroipc4RingIiE10write_bulkEPKim
FNDA:2,_ZN7zeroipc4RingIdE9read_bulkEPdm
FNDA:2,_ZN7zeroipc4RingIiE9read_bulkEPim
FNDA:4,_ZNK7zeroipc4RingIiE9availableEv
FNDA:20,_ZNK7zeroipc4RingIiE5emptyEv
FNDA:4,_ZNK7zeroipc4RingIiE4fullEv
FNDA:4,_ZN7zeroipc4RingIdEC2ERNS_6MemoryESt17basic_string_viewIcSt11char_traitsIcEEm
FNDA:10,_ZN7zeroipc4RingIiEC2ERNS_6MemoryESt17basic_string_viewIcSt11char_traitsIcEEm
FNDA:8,_ZN7zeroipc4RingIdE5writeERKd
FNDA:38,_ZN7zeroipc4RingIiE5writeERKi
FNF:13
FNH:13
DA:24,14
DA:25,28
DA:27,14
DA:28,0
DA:32,14
DA:33,14
DA:34,0
DA:38,14
DA:39,0
DA:42,14
DA:43,14
DA:45,14
DA:46,14
DA:49,14
DA:50,14
DA:51,14
DA:52,14
DA:54,14
DA:55,14
DA:77,46
DA:78,46
DA:79,46
DA:82,46
DA:83,2
DA:87,44
DA:89,44
DA:91,44
DA:94,0
DA:95,0
DA:96,0
DA:101,44
DA:102,44
DA:106,48
DA:107,48
DA:108,48
DA:111,48
DA:112,6
DA:117,42
DA:119,42
DA:121,42
DA:124,0
DA:125,0
DA:126,0
DA:131,42
DA:132,42
DA:136,4
DA:137,4
DA:138,4
DA:141,4
DA:142,4
DA:144,4
DA:146,4
DA:147,4
DA:149,4
DA:151,4
DA:154,0
DA:155,0
DA:156,0
DA:161,4
DA:162,4
DA:166,4
DA:167,4
DA:168,4
DA:171,4
DA:172,4
DA:174,4
DA:176,4
DA:177,4
DA:179,4
DA:181,4
DA:184,0
DA:185,0
DA:186,0
DA:191,4
DA:192,4
DA:196,4
DA:197,4
DA:198,4
DA:199,4
DA:215,20
DA:216,20
DA:217,20
DA:218,20
DA:222,4
DA:223,4
DA:224,4
DA:225,4
LF:87
LH:72
end_of_record
TN:
SF:/home/spinoza/github/beta/zeroipc/cpp/include/zeroipc/set.h
FN:126,148,_ZNK7zeroipc3SetIiE8containsERKi
FN:151,174,_ZN7zeroipc3SetIiE5eraseERKi
FN:177,179,_ZNK7zeroipc3SetIiE4sizeEv
FN:205,215,_ZNK7zeroipc3SetIiE10hash_valueERKi
FN:217,223,_ZNK7zeroipc3SetIiE12values_equalERKiS3_
FN:33,63,_ZN7zeroipc3SetIiEC2ERNS_6MemoryESt17basic_string_viewIcSt11char_traitsIcEEm
FN:86,123,_ZN7zeroipc3SetIiE6insertERKi
FNDA:6,_ZNK7zeroipc3SetIiE8containsERKi
FNDA:2,_ZN7zeroipc3SetIiE5eraseERKi
FNDA:4,_ZNK7zeroipc3SetIiE4sizeEv
FNDA:14,_ZNK7zeroipc3SetIiE10hash_valueERKi
FNDA:6,_ZNK7zeroipc3SetIiE12values_equalERKiS3_
FNDA:2,_ZN7zeroipc3SetIiEC2ERNS_6MemoryESt17basic_string_viewIcSt11char_traitsIcEEm
FNDA:6,_ZN7zeroipc3SetIiE6insertERKi
FNF:7
FNH:7
DA:33,2
DA:34,4
DA:36,2
DA:37,0
DA:41,2
DA:42,0
DA:45,2
DA:46,2
DA:48,2
DA:49,2
DA:52,2
DA:53,2
DA:54,2
DA:56,2
DA:57,2
DA:60,202
DA:61,200
DA:63,2
DA:86,6
DA:87,6
DA:88,6
DA:91,6
DA:92,6
DA:93,6
DA:96,6
DA:97,6
DA:98,6
DA:102,4
DA:103,8
DA:106,4
DA:107,4
DA:108,4
DA:112,0
DA:113,0
DA:116,0
DA:117,0
DA:118,0
DA:122,0
DA:126,6
DA:127,6
DA:128,6
DA:130,8
DA:131,8
DA:132,8
DA:134,8
DA:136,8
DA:137,4
DA:140,4
DA:141,2
DA:147,0
DA:151,2
DA:152,2
DA:153,2
DA:155,2
DA:156,2
DA:157,2
DA:159,2
DA:161,2
DA:162,0
DA:165,2
DA:167,2
DA:168,2
DA:169,2
DA:173,0
DA:177,4
DA:178,8
DA:205,14
DA:208,14
DA:217,6
DA:219,6
LF:70
LH:59
end_of_record
TN:
SF:/home/spinoza/github/beta/zeroipc/cpp/include/zeroipc/stack.h
FN:117,123,_ZNK7zeroipc5StackIiE3topEv
FN:117,123,_ZNK7zeroipc5StackImE3topEv
FN:126,128,_ZNK7zeroipc5StackIdE5emptyEv
FN:126,128,_ZNK7zeroipc5StackIiE5emptyEv
FN:126,128,_ZNK7zeroipc5StackImE5emptyEv
FN:131,134,_ZNK7zeroipc5StackIiE4fullEv
FN:137,140,_ZNK7zeroipc5StackIdE4sizeEv
FN:137,140,_ZNK7zeroipc5StackIiE4sizeEv
FN:137,140,_ZNK7zeroipc5StackImE4sizeEv
FN:142,142,_ZNK7zeroipc5StackIdE8capacityEv
FN:142,142,_ZNK7zeroipc5StackIiE8capacityEv
FN:22,38,_ZN7zeroipc5StackIZN25StackTest_StructType_Test8TestBodyEvE5PointEC2ERNS_6MemoryESt17basic_string_viewIcSt11char_traitsIcEEm
FN:22,38,_ZN7zeroipc5StackIZN36ABATest_TaggedPointerSimulation_Test8TestBodyEvE11TaggedValueEC2ERNS_6MemoryESt17basic_string_viewIcSt11char_traitsIcEEm
FN:22,38,_ZN7zeroipc5StackIcEC2ERNS_6MemoryESt17basic_string_viewIcSt11char_traitsIcEEm
FN:22,38,_ZN7zeroipc5StackIdEC2ERNS_6MemoryESt17basic_string_viewIcSt11char_traitsIcEEm
FN:22,38,_ZN7zeroipc5StackIiEC2ERNS_6MemoryESt17basic_string_viewIcSt11char_traitsIcEEm
FN:22,38,_ZN7zeroipc5StackImEC2ERNS_6MemoryESt17basic_string_viewIcSt11char_traitsIcEEm
FN:41,58,_ZN7zeroipc5StackIcEC2ERNS_6MemoryESt17basic_string_viewIcSt11char_traitsIcEE
FN:41,58,_ZN7zeroipc5StackIdEC2ERNS_6MemoryESt17basic_string_viewIcSt11char_traitsIcEE
FN:41,58,_ZN7zeroipc5StackIiEC2ERNS_6MemoryESt17basic_string_viewIcSt11char_traitsIcEE
FN:61,86,_ZN7zeroipc5StackIZN25StackTest_StructType_Test8TestBodyEvE5PointE4pushERKS2_
FN:61,86,_ZN7zeroipc5StackIZN36ABATest_TaggedPointerSimulation_Test8TestBodyEvE11TaggedValueE4pushERKS2_
FN:61,86,_ZN7zeroipc5StackIcE4pushERKc
FN:61,86,_ZN7zeroipc5StackIdE4pushERKd
FN:61,86,_ZN7zeroipc5StackIiE4pushERKi
FN:61,86,_ZN7zeroipc5StackImE4pushERKm
FN:89,114,_ZN7zeroipc5StackIZN25StackTest_StructType_Test8TestBodyEvE5PointE3popEv
FN:89,114,_ZN7zeroipc5StackIZN36ABATest_TaggedPointerSimulation_Test8TestBodyEvE11TaggedValueE3popEv
FN:89,114,_ZN7zeroipc5StackIcE3popEv
FN:89,114,_ZN7zeroipc5StackIdE3popEv
FN:89,114,_ZN7zeroipc5StackIiE3popEv
FN:89,114,_ZN7zeroipc5StackImE3popEv
FNDA:30,_ZNK7zeroipc5StackIiE3topEv
FNDA:11390,_ZNK7zeroipc5StackImE3topEv
FNDA:502,_ZNK7zeroipc5StackIdE5emptyEv
FNDA:228,_ZNK7zeroipc5StackIiE5emptyEv
FNDA:202,_ZNK7zeroipc5StackImE5emptyEv
FNDA:220,_ZNK7zeroipc5StackIiE4fullEv
FNDA:4,_ZNK7zeroipc5StackIdE4sizeEv
FNDA:63045,_ZNK7zeroipc5StackIiE4sizeEv
FNDA:2,_ZNK7zeroipc5StackImE4sizeEv
FNDA:2,_ZNK7zeroipc5StackIdE8capacityEv
FNDA:4,_ZNK7zeroipc5StackIiE8capacityEv
FNDA:2,_ZN7zeroipc5StackIZN25StackTest_StructType_Test8TestBodyEvE5PointEC2ERNS_6MemoryESt17basic_string_viewIcSt11char_traitsIcEEm
FNDA:2,_ZN7zeroipc5StackIZN36ABATest_TaggedPointerSimulation_Test8TestBodyEvE11TaggedValueEC2ERNS_6MemoryESt17basic_string_viewIcSt11char_traitsIcEEm
FNDA:40,_ZN7zeroipc5StackIcEC2ERNS_6MemoryESt17basic_string_viewIcSt11char_traitsIcEEm
FNDA:6,_ZN7zeroipc5StackIdEC2ERNS_6MemoryESt17basic_string_viewIcSt11char_traitsIcEEm
FNDA:244,_ZN7zeroipc5StackIiEC2ERNS_6MemoryESt17basic_string_viewIcSt11char_traitsIcEEm
FNDA:8,_ZN7zeroipc5StackImEC2ERNS_6MemoryESt17basic_string_viewIcSt11char_traitsIcEEm
FNDA:40,_ZN7zeroipc5StackIcEC2ERNS_6MemoryESt17basic_string_viewIcSt11char_traitsIcEE
FNDA:6,_ZN7zeroipc5StackIdEC2ERNS_6MemoryESt17basic_string_viewIcSt11char_traitsIcEE
FNDA:2,_ZN7zeroipc5StackIiEC2ERNS_6MemoryESt17basic_string_viewIcSt11char_traitsIcEE
FNDA:4,_ZN7zeroipc5StackIZN25StackTest_StructType_Test8TestBodyEvE5PointE4pushERKS2_
FNDA:7059,_ZN7zeroipc5StackIZN36ABATest_TaggedPointerSimulation_Test8TestBodyEvE11TaggedValueE4pushERKS2_
FNDA:40,_ZN7zeroipc5StackIcE4pushERKc
FNDA:510,_ZN7zeroipc5StackIdE4pushERKd
FNDA:797537,_ZN7zeroipc5StackIiE4pushERKi
FNDA:702254,_ZN7zeroipc5StackImE4pushERKm
FNDA:2,_ZN7zeroipc5StackIZN25StackTest_StructType_Test8TestBodyEvE5PointE3popEv
FNDA:7462,_ZN7zeroipc5StackIZN36ABATest_TaggedPointerSimulation_Test8TestBodyEvE11TaggedValueE3popEv
FNDA:40,_ZN7zeroipc5StackIcE3popEv
FNDA:508,_ZN7zeroipc5StackIdE3popEv
FNDA:787826,_ZN7zeroipc5StackIiE3popEv
FNDA:699129,_ZN7zeroipc5StackImE3popEv
FNF:32
FNH:32
DA:22,302
DA:23,604
DA:25,302
DA:26,302
DA:28,302
DA:29,302
DA:32,302
DA:33,302
DA:34,302
DA:36,302
DA:37,302
DA:38,302
DA:41,48
DA:42,96
DA:45,48
DA:46,0
DA:49,48
DA:50,48
DA:52,48
DA:53,0
DA:56,48
DA:57,48
DA:58,48
DA:61,1507404
DA:66,2450055
DA:69,2227894
DA:70,23053
DA:73,2204841
DA:74,4627467
DA:80,1479975
DA:85,1479975
DA:89,1494967
DA:94,2275136
DA:97,2108711
DA:98,3481
DA:101,2105230
DA:102,4344951
DA:111,1459552
DA:113,1459552
DA:117,11420
DA:118,11420
DA:119,11075
DA:120,14
DA:122,11061
DA:126,932
DA:127,1864
DA:131,220
DA:132,220
DA:133,220
DA:137,63051
DA:138,63051
DA:139,63575
DA:142,6
LF:53
LH:51
end_of_record
TN:
SF:/home/spinoza/github/beta/zeroipc/cpp/include/zeroipc/stream.h
FN:139,153,_ZN7zeroipc6StreamIdE4emitERKd
FN:139,153,_ZN7zeroipc6StreamIiE4emitERKi
FN:156,173,_ZN7zeroipc6StreamIdE9emit_bulkEPKdm
FN:176,178,_ZN7zeroipc6StreamIdE4nextEv
FN:176,178,_ZN7zeroipc6StreamIiE4nextEv
FN:181,183,_ZN7zeroipc6StreamIdE9read_bulkEPdm
FN:290,292,_ZN7zeroipc6StreamIiE5closeEv
FN:295,297,_ZNK7zeroipc6StreamIiE9is_closedEv
FN:300,302,_ZNK7zeroipc6StreamIiE8sequenceEv
FN:322,341,_ZN7zeroipc6StreamIiE4foldIiZN26CodataTest_StreamFold_Test8TestBodyEvEUliiE_EET_S5_OT0_
FN:349,352,_ZN7zeroipc6StreamIdE18notify_subscribersEmRKd
FN:349,352,_ZN7zeroipc6StreamIiE18notify_subscribersEmRKi
FN:97,118,_ZN7zeroipc6StreamIdEC2ERNS_6MemoryESt17basic_string_viewIcSt11char_traitsIcEEm
FN:97,118,_ZN7zeroipc6StreamIiEC2ERNS_6MemoryESt17basic_string_viewIcSt11char_traitsIcEEm
FNDA:8,_ZN7zeroipc6StreamIdE4emitERKd
FNDA:16,_ZN7zeroipc6StreamIiE4emitERKi
FNDA:2,_ZN7zeroipc6StreamIdE9emit_bulkEPKdm
FNDA:10,_ZN7zeroipc6StreamIdE4nextEv
FNDA:18,_ZN7zeroipc6StreamIiE4nextEv
FNDA:2,_ZN7zeroipc6StreamIdE9read_bulkEPdm
FNDA:2,_ZN7zeroipc6StreamIiE5closeEv
FNDA:4,_ZNK7zeroipc6StreamIiE9is_closedEv
FNDA:4,_ZNK7zeroipc6StreamIiE8sequenceEv
FNDA:2,_ZN7zeroipc6StreamIiE4foldIiZN26CodataTest_StreamFold_Test8TestBodyEvEUliiE_EET_S5_OT0_
FNDA:18,_ZN7zeroipc6StreamIdE18notify_subscribersEmRKd
FNDA:16,_ZN7zeroipc6StreamIiE18notify_subscribersEmRKi
FNDA:4,_ZN7zeroipc6StreamIdEC2ERNS_6MemoryESt17basic_string_viewIcSt11char_traitsIcEEm
FNDA:4,_ZN7zeroipc6StreamIiEC2ERNS_6MemoryESt17basic_string_viewIcSt11char_traitsIcEEm
FNF:14
FNH:14
DA:97,8
DA:98,24
DA:100,8
DA:101,8
DA:102,8
DA:104,8
DA:105,8
DA:108,8
DA:109,8
DA:110,8
DA:111,8
DA:112,8
DA:115,8
DA:116,8
DA:117,8
DA:118,8
DA:139,24
DA:140,24
DA:141,0
DA:144,24
DA:145,0
DA:148,24
DA:151,24
DA:152,24
DA:156,2
DA:157,2
DA:158,0
DA:161,2
DA:163,2
DA:164,2
DA:167,12
DA:168,10
DA:172,2
DA:176,28
DA:177,28
DA:181,2
DA:182,2
DA:290,2
DA:291,2
DA:292,2
DA:295,4
DA:296,4
DA:300,4
DA:301,8
DA:322,2
DA:323,2
DA:325,12
DA:326,10
DA:329,2
DA:330,0
DA:331,0
DA:333,0
DA:337,2
DA:338,0
DA:340,2
DA:349,34
DA:352,34
LF:57
LH:50
end_of_record
TN:
SF:/home/spinoza/github/beta/zeroipc/cpp/include/zeroipc/table.h
FN:106,124,_ZN7zeroipc5Table8allocateEmm
FN:129,131,_ZN7zeroipc5Table14calculate_sizeEm
FN:136,138,_ZNK7zeroipc5Table11entry_countEv
FN:143,145,_ZNK7zeroipc5Table11max_entriesEv
FN:150,152,_ZNK7zeroipc5Table11next_offsetEv
FN:155,167,_ZN7zeroipc5Table10initializeEv
FN:169,186,_ZN7zeroipc5Table8validateEv
FN:188,190,_ZN7zeroipc5Table10get_headerEv
FN:192,194,_ZNK7zeroipc5Table10get_headerEv
FN:196,198,_ZN7zeroipc5Table11get_entriesEv
FN:200,202,_ZNK7zeroipc5Table11get_entriesEv
FN:43,53,_ZN7zeroipc5TableC2EPvmmb
FN:59,69,_ZNK7zeroipc5Table4findESt17basic_string_viewIcSt11char_traitsIcEE
FN:75,98,_ZN7zeroipc5Table3addESt17basic_string_viewIcSt11char_traitsIcEEmm
FNDA:3706,_ZN7zeroipc5Table8allocateEmm
FNDA:584,_ZN7zeroipc5Table14calculate_sizeEm
FNDA:31,_ZNK7zeroipc5Table11entry_countEv
FNDA:11,_ZNK7zeroipc5Table11max_entriesEv
FNDA:9,_ZNK7zeroipc5Table11next_offsetEv
FNDA:542,_ZN7zeroipc5Table10initializeEv
FNDA:22,_ZN7zeroipc5Table8validateEv
FNDA:8120,_ZN7zeroipc5Table10get_headerEv
FNDA:22804,_ZNK7zeroipc5Table10get_headerEv
FNDA:2495,_ZN7zeroipc5Table11get_entriesEv
FNDA:22818,_ZNK7zeroipc5Table11get_entriesEv
FNDA:564,_ZN7zeroipc5TableC2EPvmmb
FNDA:22712,_ZNK7zeroipc5Table4findESt17basic_string_viewIcSt11char_traitsIcEE
FNDA:3855,_ZN7zeroipc5Table3addESt17basic_string_viewIcSt11char_traitsIcEEmm
FNF:14
FNH:14
DA:43,564
DA:44,564
DA:45,564
DA:46,564
DA:48,564
DA:49,542
DA:51,22
DA:53,561
DA:59,22712
DA:60,22712
DA:61,22779
DA:63,329433
DA:64,326733
DA:65,19792
DA:68,2700
DA:75,3855
DA:76,3855
DA:77,5
DA:80,3850
DA:81,3850
DA:82,1893
DA:85,1957
DA:86,5
DA:89,1953
DA:90,1953
DA:92,1953
DA:93,1953
DA:94,1953
DA:95,1953
DA:97,1953
DA:106,3706
DA:107,3706
DA:110,3705
DA:111,3705
DA:114,3705
DA:115,0
DA:118,3706
DA:119,4
DA:122,3702
DA:123,3702
DA:129,584
DA:130,584
DA:136,31
DA:137,31
DA:143,11
DA:144,11
DA:150,9
DA:151,9
DA:155,542
DA:156,542
DA:157,542
DA:158,542
DA:159,542
DA:160,542
DA:161,542
DA:162,542
DA:165,542
DA:166,542
DA:167,542
DA:169,22
DA:170,22
DA:172,22
DA:173,3
DA:176,19
DA:177,0
DA:180,19
DA:181,0
DA:185,19
DA:186,19
DA:188,8120
DA:189,8120
DA:192,22804
DA:193,22804
DA:196,2495
DA:197,2495
DA:200,22818
DA:201,22818
LF:77
LH:74
end_of_record
TN:
SF:/home/spinoza/github/beta/zeroipc/cpp/tools/zeroipc-inspect.cpp
FN:115,148,_ZN21SharedMemoryInspector10printTableEb
FN:150,194,_ZN21SharedMemoryInspector12printHexDumpERKNSt7__cxx1112basic_stringIcSt11char_traitsIcESaIcEEEm
FN:196,250,_ZN21SharedMemoryInspector18printStructureInfoERKNSt7__cxx1112basic_stringIcSt11char_traitsIcESaIcEEE
FN:252,255,_ZN21SharedMemoryInspector16listSharedMemoryEv
FN:258,267,_ZN21SharedMemoryInspector7cleanupEv
FN:269,276,_ZN21SharedMemoryInspector9findEntryERKNSt7__cxx1112basic_stringIcSt11char_traitsIcESaIcEEE
FN:278,303,_ZN21SharedMemoryInspector18guessStructureTypeB5cxx11ERK10TableEntry
FN:305,317,_ZN21SharedMemoryInspector10formatSizeB5cxx11Em
FN:320,338,_Z10printUsagePKc
FN:340,445,main
FN:42,46,_ZN21SharedMemoryInspectorC2ERKNSt7__cxx1112basic_stringIcSt11char_traitsIcESaIcEEE
FN:48,50,_ZN21SharedMemoryInspectorD2Ev
FN:52,94,_ZN21SharedMemoryInspector4openEv
FN:96,113,_ZN21SharedMemoryInspector12printSummaryEv
FNDA:2,_ZN21SharedMemoryInspector10printTableEb
FNDA:2,_ZN21SharedMemoryInspector12printHexDumpERKNSt7__cxx1112basic_stringIcSt11char_traitsIcESaIcEEEm
FNDA:4,_ZN21SharedMemoryInspector18printStructureInfoERKNSt7__cxx1112basic_stringIcSt11char_traitsIcESaIcEEE
FNDA:2,_ZN21SharedMemoryInspector16listSharedMemoryEv
FNDA:16,_ZN21SharedMemoryInspector7cleanupEv
FNDA:6,_ZN21SharedMemoryInspector9findEntryERKNSt7__cxx1112basic_stringIcSt11char_traitsIcESaIcEEE
FNDA:2,_ZN21SharedMemoryInspector18guessStructureTypeB5cxx11ERK10TableEntry
FNDA:24,_ZN21SharedMemoryInspector10formatSizeB5cxx11Em
FNDA:0,_Z10printUsagePKc
FNDA:16,main
FNDA:16,_ZN21SharedMemoryInspectorC2ERKNSt7__cxx1112basic_stringIcSt11char_traitsIcESaIcEEE
FNDA:16,_ZN21SharedMemoryInspectorD2Ev
FNDA:14,_ZN21SharedMemoryInspector4openEv
FNDA:4,_ZN21SharedMemoryInspector12printSummaryEv
FNF:14
FNH:13
DA:42,16
DA:43,16
DA:44,2
DA:46,16
DA:48,16
DA:49,16
DA:50,16
DA:52,14
DA:54,14
DA:55,14
DA:56,2
DA:57,2
DA:58,2
DA:63,12
DA:65,0
DA:66,0
DA:67,0
DA:69,12
DA:72,12
DA:73,12
DA:75,0
DA:76,0
DA:77,0
DA:81,12
DA:82,12
DA:83,0
DA:84,0
DA:85,0
DA:86,0
DA:90,12
DA:91,12
DA:93,12
DA:96,4
DA:97,4
DA:98,4
DA:99,4
DA:100,4
DA:101,4
DA:102,4
DA:103,4
DA:104,4
DA:106,4
DA:107,4
DA:108,4
DA:110,8
DA:111,4
DA:112,4
DA:113,4
DA:115,2
DA:116,2
DA:118,2
DA:119,0
DA:120,0
DA:124,2
DA:127,2
DA:129,2
DA:130,0
DA:132,2
DA:134,2
DA:137,6
DA:138,4
DA:139,4
DA:140,4
DA:141,4
DA:143,4
DA:144,0
DA:146,4
DA:150,2
DA:152,2
DA:153,2
DA:154,0
DA:155,0
DA:158,2
DA:159,2
DA:160,2
DA:162,2
DA:163,2
DA:165,12
DA:167,10
DA:170,170
DA:171,160
DA:172,144
DA:174,16
DA:176,160
DA:179,10
DA:182,154
DA:183,144
DA:184,144
DA:187,10
DA:190,2
DA:191,0
DA:192,0
DA:196,4
DA:197,4
DA:198,4
DA:199,2
DA:200,2
DA:203,2
DA:204,2
DA:205,2
DA:206,2
DA:207,2
DA:209,2
DA:210,2
DA:213,2
DA:215,2
DA:219,0
DA:220,0
DA:221,0
DA:222,0
DA:224,2
DA:230,2
DA:231,2
DA:232,2
DA:233,2
DA:235,4
DA:236,2
DA:237,2
DA:238,2
DA:240,0
DA:245,0
DA:246,0
DA:247,0
DA:248,0
DA:250,2
DA:252,2
DA:253,2
DA:254,2
DA:255,2
DA:258,16
DA:259,16
DA:260,12
DA:261,12
DA:263,16
DA:264,12
DA:265,12
DA:267,16
DA:269,6
DA:270,6
DA:271,4
DA:272,4
DA:275,2
DA:278,2
DA:280,2
DA:281,2
DA:284,2
DA:285,2
DA:286,2
DA:287,2
DA:288,0
DA:293,2
DA:294,4
DA:298,0
DA:299,0
DA:302,0
DA:305,24
DA:306,24
DA:307,24
DA:308,8
DA:309,16
DA:310,16
DA:311,0
DA:312,0
DA:314,0
DA:316,48
DA:317,24
DA:320,0
DA:321,0
DA:322,0
DA:323,0
DA:324,0
DA:325,0
DA:326,0
DA:327,0
DA:328,0
DA:329,0
DA:330,0
DA:331,0
DA:332,0
DA:333,0
DA:334,0
DA:335,0
DA:336,0
DA:337,0
DA:338,0
DA:340,16
DA:353,16
DA:354,16
DA:355,16
DA:356,16
DA:357,16
DA:358,16
DA:359,16
DA:362,16
DA:363,30
DA:364,14
DA:365,2
DA:366,2
DA:367,2
DA:368,2
DA:369,2
DA:370,2
DA:371,2
DA:372,2
DA:373,2
DA:374,2
DA:375,2
DA:376,2
DA:377,4
DA:378,4
DA:379,4
DA:380,2
DA:381,2
DA:382,2
DA:383,0
DA:384,0
DA:385,0
DA:386,0
DA:387,0
DA:388,0
DA:389,0
DA:390,0
DA:391,0
DA:396,16
DA:397,2
DA:398,2
DA:399,2
DA:400,2
DA:403,14
DA:404,0
DA:405,0
DA:406,0
DA:409,28
DA:410,28
DA:412,14
DA:413,2
DA:417,16
DA:418,28
DA:419,2
DA:422,12
DA:423,0
DA:424,0
DA:425,0
DA:428,12
DA:429,4
DA:432,12
DA:433,2
DA:436,12
DA:437,2
DA:440,12
DA:441,4
DA:444,12
DA:445,16
LF:253
LH:185
end_of_record
